target datalayout = "e-m:e-p270:32:32-p271:32:32-p272:64:64-i64:64-i128:128-f80:128-n8:16:32:64-S128"
target triple = "x86_64-unknown-linux-gnu"

%"class.hermes::vm::Handle" = type { %"class.hermes::vm::HandleBase" }
%"class.hermes::vm::HandleBase" = type { ptr }
%"class.hermes::vm::Handle.158" = type { %"class.hermes::vm::HandleBase" }
%"class.llvh::SmallVectorBase" = type { ptr, i32, i32 }
%"class.hermes::vm::Handle.162" = type { %"class.hermes::vm::HandleBase" }
%"class.hermes::vm::GCScope" = type <{ ptr, ptr, [128 x i8], %"class.llvh::SmallVector.163", ptr, ptr, i32, [4 x i8] }>
%"class.llvh::SmallVector.163" = type { %"class.llvh::SmallVectorImpl.164", %"struct.llvh::SmallVectorStorage.167" }
%"class.llvh::SmallVectorImpl.164" = type { %"class.llvh::SmallVectorTemplateBase.165" }
%"class.llvh::SmallVectorTemplateBase.165" = type { %"class.llvh::SmallVectorTemplateCommon.166" }
%"class.llvh::SmallVectorTemplateCommon.166" = type { %"class.llvh::SmallVectorBase" }
%"struct.llvh::SmallVectorStorage.167" = type { [4 x %"struct.llvh::AlignedCharArrayUnion.168"] }
%"struct.llvh::AlignedCharArrayUnion.168" = type { %"struct.llvh::AlignedCharArray.169" }
%"struct.llvh::AlignedCharArray.169" = type { [8 x i8] }
%"class.hermes::vm::MutableHandle.171" = type { %"class.hermes::vm::Handle.158" }
%"class.hermes::vm::GCScope::Marker" = type <{ ptr, i32, [4 x i8] }>
%"class.hermes::vm::MutableHandle.182" = type { %"class.hermes::vm::Handle" }
%"class.hermes::vm::MutableHandle.183" = type { %"class.hermes::vm::Handle.184" }
%"class.hermes::vm::Handle.184" = type { %"class.hermes::vm::HandleBase" }
%"class.hermes::vm::(anonymous namespace)::StandardSortModel" = type { %"class.hermes::vm::SortModel", ptr, %"class.hermes::vm::GCScope", %"class.hermes::vm::Handle.162", %"class.hermes::vm::Handle", %"class.hermes::vm::MutableHandle.183", %"class.hermes::vm::MutableHandle.183", %"class.hermes::vm::MutableHandle.171", %"class.hermes::vm::MutableHandle.171", %"class.hermes::vm::MutableHandle.171", %"class.hermes::vm::MutableHandle.171", %"class.hermes::vm::MutableHandle.182", %"class.hermes::vm::MutableHandle.182", %"class.hermes::vm::GCScope::Marker" }
%"class.hermes::vm::SortModel" = type { ptr }

; Function Attrs: mustprogress nounwind uwtable
define internal void @_ZN6hermes2vm12_GLOBAL__N_117StandardSortModelD2Ev(ptr noundef nonnull align 8 dereferenceable(328) %this) unnamed_addr #0 align 2 {
entry:
  %this.addr = alloca ptr, align 8
  store ptr %this, ptr %this.addr, align 8
  %this1 = load ptr, ptr %this.addr, align 8
  store ptr getelementptr inbounds ({ [6 x ptr] }, ptr @_ZTVN6hermes2vm12_GLOBAL__N_117StandardSortModelE, i32 0, i32 0, i32 2), ptr %this1, align 8
  %gcScope_ = getelementptr inbounds %"class.hermes::vm::(anonymous namespace)::StandardSortModel", ptr %this1, i32 0, i32 2
  call void @_ZN6hermes2vm7GCScopeD1Ev(ptr noundef nonnull align 8 dereferenceable(212) %gcScope_) #10
  call void @_ZN6hermes2vm9SortModelD2Ev(ptr noundef nonnull align 8 dereferenceable(8) %this1) #10
  ret void
}

; Function Attrs: mustprogress nounwind uwtable
define internal void @_ZN6hermes2vm12_GLOBAL__N_117StandardSortModelD0Ev(ptr noundef nonnull align 8 dereferenceable(328) %this) unnamed_addr #0 align 2 {
entry:
  %this.addr = alloca ptr, align 8
  store ptr %this, ptr %this.addr, align 8
  %this1 = load ptr, ptr %this.addr, align 8
  call void @_ZN6hermes2vm12_GLOBAL__N_117StandardSortModelD2Ev(ptr noundef nonnull align 8 dereferenceable(328) %this1) #10
  call void @_ZdlPv(ptr noundef %this1) #13
  ret void
}