; Function Attrs: mustprogress nounwind uwtable
define internal void @_ZN6hermes2vm12_GLOBAL__N_117StandardSortModelD0Ev(ptr noundef nonnull align 8 dereferenceable(328) %this) unnamed_addr #0 align 2 {
entry:
  store ptr getelementptr inbounds ({ [6 x ptr] }, ptr @_ZTVN6hermes2vm12_GLOBAL__N_117StandardSortModelE, i64 0, i32 0, i64 2), ptr %this, align 8
  %gcScope_.i = getelementptr inbounds i8, ptr %this, i64 16
  tail call void @_ZN6hermes2vm7GCScopeD1Ev(ptr noundef nonnull align 8 dereferenceable(212) %gcScope_.i) #8
  tail call void @_ZN6hermes2vm9SortModelD2Ev(ptr noundef nonnull align 8 dereferenceable(8) %this) #8
  tail call void @_ZdlPv(ptr noundef nonnull %this) #10
  ret void
}